; Function Attrs: mustprogress uwtable
define void @_ZNK4YAML6Stream12StreamInUtf8Ev(ptr noundef nonnull align 8 dereferenceable(136) %0) local_unnamed_addr #0 align 2 {
  %2 = alloca i8, align 1
  %3 = getelementptr inbounds nuw i8, ptr %0, i64 128
  %4 = load i64, ptr %3, align 8, !tbaa !83
  %5 = getelementptr inbounds nuw i8, ptr %0, i64 120
  %6 = load i64, ptr %5, align 8, !tbaa !84
  %.not.i = icmp ult i64 %4, %6
  br i1 %.not.i, label %._crit_edge.i, label %7

7:                                                ; preds = %1
  %8 = load ptr, ptr %0, align 8, !tbaa !57
  %9 = load ptr, ptr %8, align 8, !tbaa !22
  %10 = getelementptr i8, ptr %9, i64 -24
  %11 = load i64, ptr %10, align 8
  %12 = getelementptr inbounds i8, ptr %8, i64 %11
  %13 = getelementptr inbounds nuw i8, ptr %12, i64 232
  %14 = load ptr, ptr %13, align 8, !tbaa !85
  %15 = getelementptr inbounds nuw i8, ptr %0, i64 112
  %16 = load ptr, ptr %15, align 8, !tbaa !8
  %17 = load ptr, ptr %14, align 8, !tbaa !22
  %18 = getelementptr inbounds nuw i8, ptr %17, i64 64
  %19 = load ptr, ptr %18, align 8
  %20 = tail call noundef i64 %19(ptr noundef nonnull align 8 dereferenceable(64) %14, ptr noundef %16, i64 noundef 2048)
  store i64 %20, ptr %5, align 8, !tbaa !84
  store i64 0, ptr %3, align 8, !tbaa !83
  %.not4.i = icmp eq i64 %20, 0
  br i1 %.not4.i, label %21, label %._crit_edge.i

21:                                               ; preds = %7
  %22 = load ptr, ptr %0, align 8, !tbaa !57
  %23 = load ptr, ptr %22, align 8, !tbaa !22
  %24 = getelementptr i8, ptr %23, i64 -24
  %25 = load i64, ptr %24, align 8
  %26 = getelementptr inbounds i8, ptr %22, i64 %25
  %27 = getelementptr inbounds nuw i8, ptr %26, i64 32
  %28 = load i32, ptr %27, align 8, !tbaa !24
  %29 = or i32 %28, 2
  tail call void @_ZNSt9basic_iosIcSt11char_traitsIcEE5clearESt12_Ios_Iostate(ptr noundef nonnull align 8 dereferenceable(264) %26, i32 noundef %29)
  %.pre.i = load i64, ptr %5, align 8, !tbaa !84
  %30 = icmp eq i64 %.pre.i, 0
  br i1 %30, label %_ZNK4YAML6Stream11GetNextByteEv.exit, label %.._crit_edge.i_crit_edge

.._crit_edge.i_crit_edge:                         ; preds = %21
  %.pre6.i.pre = load i64, ptr %3, align 8, !tbaa !83
  br label %._crit_edge.i

._crit_edge.i:                                    ; preds = %7, %.._crit_edge.i_crit_edge, %1
  %31 = phi i64 [ %4, %1 ], [ %.pre6.i.pre, %.._crit_edge.i_crit_edge ], [ 0, %7 ]
  %32 = getelementptr inbounds nuw i8, ptr %0, i64 112
  %33 = load ptr, ptr %32, align 8, !tbaa !8
  %34 = add i64 %31, 1
  store i64 %34, ptr %3, align 8, !tbaa !83
  %35 = getelementptr inbounds nuw i8, ptr %33, i64 %31
  %36 = load i8, ptr %35, align 1, !tbaa !36
  br label %_ZNK4YAML6Stream11GetNextByteEv.exit

_ZNK4YAML6Stream11GetNextByteEv.exit:             ; preds = %21, %._crit_edge.i
  %.1.i = phi i8 [ 0, %21 ], [ %36, %._crit_edge.i ]
  %37 = load ptr, ptr %0, align 8, !tbaa !57
  %38 = load ptr, ptr %37, align 8, !tbaa !22
  %39 = getelementptr i8, ptr %38, i64 -24
  %40 = load i64, ptr %39, align 8
  %41 = getelementptr inbounds i8, ptr %37, i64 %40
  %42 = getelementptr inbounds nuw i8, ptr %41, i64 32
  %43 = load i32, ptr %42, align 8, !tbaa !24
  %44 = icmp eq i32 %43, 0
  br i1 %44, label %45, label %56

45:                                               ; preds = %_ZNK4YAML6Stream11GetNextByteEv.exit
  call void @llvm.lifetime.start.p0(i64 1, ptr nonnull %2) #16
  store i8 %.1.i, ptr %2, align 1, !tbaa !36
  %46 = getelementptr inbounds nuw i8, ptr %0, i64 80
  %47 = load ptr, ptr %46, align 8, !tbaa !81
  %48 = getelementptr inbounds nuw i8, ptr %0, i64 96
  %49 = load ptr, ptr %48, align 8, !tbaa !82
  %50 = getelementptr inbounds i8, ptr %49, i64 -1
  %.not.i.i = icmp eq ptr %47, %50
  br i1 %.not.i.i, label %54, label %51

51:                                               ; preds = %45
  store i8 %.1.i, ptr %47, align 1, !tbaa !36
  %52 = load ptr, ptr %46, align 8, !tbaa !81
  %53 = getelementptr inbounds nuw i8, ptr %52, i64 1
  store ptr %53, ptr %46, align 8, !tbaa !81
  br label %_ZNSt5dequeIcSaIcEE9push_backEOc.exit

54:                                               ; preds = %45
  %55 = getelementptr inbounds nuw i8, ptr %0, i64 32
  call void @_ZNSt5dequeIcSaIcEE16_M_push_back_auxIJcEEEvDpOT_(ptr noundef nonnull align 8 dereferenceable(80) %55, ptr noundef nonnull align 1 dereferenceable(1) %2)
  br label %_ZNSt5dequeIcSaIcEE9push_backEOc.exit

_ZNSt5dequeIcSaIcEE9push_backEOc.exit:            ; preds = %51, %54
  call void @llvm.lifetime.end.p0(i64 1, ptr nonnull %2) #16
  br label %56

56:                                               ; preds = %_ZNSt5dequeIcSaIcEE9push_backEOc.exit, %_ZNK4YAML6Stream11GetNextByteEv.exit
  ret void
}